; Function Attrs: nounwind uwtable
define ptr @Extra_bddImageCompute(ptr noundef %0, ptr noundef %1) local_unnamed_addr #0 {
  %3 = getelementptr inbounds nuw i8, ptr %0, i64 8
  %4 = load ptr, ptr %3, align 8, !tbaa !62
  %5 = load ptr, ptr %4, align 8, !tbaa !53
  %6 = getelementptr inbounds nuw i8, ptr %0, i64 36
  %7 = load i32, ptr %6, align 4, !tbaa !76
  %8 = add nsw i32 %7, 1
  store i32 %8, ptr %6, align 4, !tbaa !76
  %9 = tail call ptr @Cudd_Support(ptr noundef %5, ptr noundef %1) #10
  tail call void @Cudd_Ref(ptr noundef %9) #10
  %10 = getelementptr inbounds nuw i8, ptr %0, i64 16
  %11 = load ptr, ptr %10, align 8, !tbaa !73
  %.not = icmp eq ptr %9, %11
  br i1 %.not, label %23, label %12

12:                                               ; preds = %2
  %13 = tail call ptr @Cudd_bddExistAbstract(ptr noundef %5, ptr noundef %9, ptr noundef %11) #10
  tail call void @Cudd_Ref(ptr noundef %13) #10
  %14 = getelementptr inbounds nuw i8, ptr %5, i64 40
  %15 = load ptr, ptr %14, align 8, !tbaa !39
  %.not43 = icmp eq ptr %13, %15
  br i1 %.not43, label %22, label %16

16:                                               ; preds = %12
  %17 = tail call i32 (ptr, ...) @printf(ptr noundef nonnull dereferenceable(1) @.str)
  %18 = tail call i32 (ptr, ...) @printf(ptr noundef nonnull dereferenceable(1) @.str.1, ptr noundef nonnull @.str.2)
  %19 = load ptr, ptr %10, align 8, !tbaa !73
  tail call void @Extra_bddPrint(ptr noundef nonnull %5, ptr noundef %19) #10
  %putchar = tail call i32 @putchar(i32 10)
  %20 = tail call i32 (ptr, ...) @printf(ptr noundef nonnull dereferenceable(1) @.str.4)
  %21 = tail call i32 (ptr, ...) @printf(ptr noundef nonnull dereferenceable(1) @.str.1, ptr noundef nonnull @.str.5)
  tail call void @Extra_bddPrint(ptr noundef nonnull %5, ptr noundef %9) #10
  %putchar44 = tail call i32 @putchar(i32 10)
  tail call void @Cudd_RecursiveDeref(ptr noundef nonnull %5, ptr noundef %9) #10
  tail call void @Cudd_RecursiveDeref(ptr noundef nonnull %5, ptr noundef %13) #10
  %puts = tail call i32 @puts(ptr nonnull dereferenceable(1) @str.1)
  br label %40

22:                                               ; preds = %12
  tail call void @Cudd_RecursiveDeref(ptr noundef nonnull %5, ptr noundef %13) #10
  br label %23

23:                                               ; preds = %22, %2
  tail call void @Cudd_RecursiveDeref(ptr noundef %5, ptr noundef %9) #10
  %24 = load ptr, ptr %3, align 8, !tbaa !62
  %25 = getelementptr inbounds nuw i8, ptr %24, i64 16
  %26 = load ptr, ptr %25, align 8, !tbaa !60
  tail call void @Cudd_RecursiveDeref(ptr noundef %5, ptr noundef %26) #10
  %27 = load ptr, ptr %3, align 8, !tbaa !62
  %28 = getelementptr inbounds nuw i8, ptr %27, i64 16
  store ptr %1, ptr %28, align 8, !tbaa !60
  tail call void @Cudd_Ref(ptr noundef %1) #10
  %29 = getelementptr inbounds nuw i8, ptr %0, i64 28
  store i32 0, ptr %29, align 4, !tbaa !77
  %30 = load ptr, ptr %0, align 8, !tbaa !72
  tail call fastcc void @Extra_bddImageCompute_rec(ptr noundef nonnull %0, ptr noundef %30)
  %31 = getelementptr inbounds nuw i8, ptr %0, i64 32
  %32 = load i32, ptr %31, align 8, !tbaa !78
  %33 = load i32, ptr %29, align 4, !tbaa !77
  %34 = icmp slt i32 %32, %33
  br i1 %34, label %35, label %36

35:                                               ; preds = %23
  store i32 %33, ptr %31, align 8, !tbaa !78
  br label %36

36:                                               ; preds = %35, %23
  %37 = load ptr, ptr %0, align 8, !tbaa !72
  %38 = getelementptr inbounds nuw i8, ptr %37, i64 16
  %39 = load ptr, ptr %38, align 8, !tbaa !60
  br label %40

40:                                               ; preds = %36, %16
  %.0 = phi ptr [ null, %16 ], [ %39, %36 ]
  ret ptr %.0
}